; Function Attrs: mustprogress uwtable
define void @_ZN5sim_t13configure_logEbb(ptr nocapture noundef nonnull align 8 dereferenceable(2888) %0, i1 noundef zeroext %1, i1 noundef zeroext %2) local_unnamed_addr #6 align 2 {
  %4 = zext i1 %1 to i8
  %5 = getelementptr inbounds i8, ptr %0, i64 1458
  store i8 %4, ptr %5, align 2
  br i1 %2, label %6, label %.loopexit

6:                                                ; preds = %3
  %7 = getelementptr inbounds i8, ptr %0, i64 864
  %8 = load ptr, ptr %7, align 8
  %9 = getelementptr inbounds i8, ptr %0, i64 872
  %10 = load ptr, ptr %9, align 8
  %11 = icmp eq ptr %8, %10
  br i1 %11, label %.loopexit, label %.lr.ph

.lr.ph:                                           ; preds = %6, %.lr.ph
  %.sroa.05.08 = phi ptr [ %13, %.lr.ph ], [ %8, %6 ]
  %12 = load ptr, ptr %.sroa.05.08, align 8
  tail call void @_ZN11processor_t18enable_log_commitsEv(ptr noundef nonnull align 8 dereferenceable(659880) %12)
  %13 = getelementptr inbounds i8, ptr %.sroa.05.08, i64 8
  %14 = icmp eq ptr %13, %10
  br i1 %14, label %.loopexit, label %.lr.ph

.loopexit:                                        ; preds = %.lr.ph, %6, %3
  ret void
}